; Function Attrs: mustprogress uwtable
define void @_ZN6icu_776number4impl25UFormattedNumberRangeImplC2Ev(ptr noundef nonnull align 8 dereferenceable(504) initializes((0, 4), (8, 20), (24, 32)) %0) unnamed_addr #1 align 2 personality ptr @__gxx_personality_v0 {
  store i32 1430672896, ptr %0, align 8, !tbaa !15
  %2 = getelementptr inbounds nuw i8, ptr %0, i64 8
  store ptr null, ptr %2, align 8, !tbaa !17
  %3 = getelementptr inbounds nuw i8, ptr %0, i64 16
  store i32 1178881536, ptr %3, align 8, !tbaa !20
  %4 = getelementptr inbounds nuw i8, ptr %0, i64 24
  %5 = getelementptr inbounds nuw i8, ptr %0, i64 48
  store ptr getelementptr inbounds nuw inrange(-16, 48) (i8, ptr @_ZTVN6icu_776number20FormattedNumberRangeE, i64 16), ptr %4, align 8, !tbaa !22
  %6 = getelementptr inbounds nuw i8, ptr %0, i64 32
  store ptr %5, ptr %6, align 8, !tbaa !24
  %7 = getelementptr inbounds nuw i8, ptr %0, i64 40
  store i32 0, ptr %7, align 8, !tbaa !28
  invoke void @_ZN6icu_7731FormattedValueStringBuilderImplC2ENS_22FormattedStringBuilder5FieldE(ptr noundef nonnull align 8 dereferenceable(452) %5, i8 0)
          to label %.noexc unwind label %18

.noexc:                                           ; preds = %1
  store ptr getelementptr inbounds nuw inrange(-16, 48) (i8, ptr @_ZTVN6icu_776number4impl25UFormattedNumberRangeDataE, i64 16), ptr %5, align 8, !tbaa !22
  %8 = getelementptr inbounds nuw i8, ptr %0, i64 352
  invoke void @_ZN6icu_776number4impl15DecimalQuantityC1Ev(ptr noundef nonnull align 8 dereferenceable(66) %8)
          to label %9 unwind label %11

9:                                                ; preds = %.noexc
  %10 = getelementptr inbounds nuw i8, ptr %0, i64 424
  invoke void @_ZN6icu_776number4impl15DecimalQuantityC1Ev(ptr noundef nonnull align 8 dereferenceable(66) %10)
          to label %16 unwind label %13

11:                                               ; preds = %.noexc
  %12 = landingpad { ptr, i32 }
          cleanup
  br label %15

13:                                               ; preds = %9
  %14 = landingpad { ptr, i32 }
          cleanup
  tail call void @_ZN6icu_776number4impl15DecimalQuantityD1Ev(ptr noundef nonnull align 8 dereferenceable(66) %8) #15
  br label %15

15:                                               ; preds = %13, %11
  %.pn.i = phi { ptr, i32 } [ %14, %13 ], [ %12, %11 ]
  tail call void @_ZN6icu_7731FormattedValueStringBuilderImplD2Ev(ptr noundef nonnull align 8 dereferenceable(452) %5) #15
  br label %.body

16:                                               ; preds = %9
  %17 = getelementptr inbounds nuw i8, ptr %0, i64 496
  store i32 3, ptr %17, align 8, !tbaa !29
  store ptr %4, ptr %2, align 8, !tbaa !17
  ret void

18:                                               ; preds = %1
  %19 = landingpad { ptr, i32 }
          cleanup
  br label %.body

.body:                                            ; preds = %15, %18
  %eh.lpad-body = phi { ptr, i32 } [ %19, %18 ], [ %.pn.i, %15 ]
  tail call void @_ZN6icu_776number20FormattedNumberRangeD1Ev(ptr noundef nonnull align 8 dereferenceable(20) %4) #15
  store i32 0, ptr %3, align 8, !tbaa !20
  store i32 0, ptr %0, align 8, !tbaa !15
  resume { ptr, i32 } %eh.lpad-body
}